target datalayout = "e-m:e-p270:32:32-p271:32:32-p272:64:64-i64:64-i128:128-f80:128-n8:16:32:64-S128"
target triple = "x86_64-pc-linux-gnu"

%struct.Mpm_Par_t_ = type { ptr, ptr, i32, i32, i32, i32, i32, i32, i32, i32, i32, i32, i32, i32, i32 }

; Function Attrs: nounwind uwtable
define ptr @Mpm_ManCellMapping(ptr noundef %0, ptr noundef %1, ptr noundef %2) #0 {
  %4 = alloca ptr, align 8
  %5 = alloca ptr, align 8
  %6 = alloca ptr, align 8
  %7 = alloca ptr, align 8
  %8 = alloca ptr, align 8
  store ptr %0, ptr %4, align 8
  store ptr %1, ptr %5, align 8
  store ptr %2, ptr %6, align 8
  %9 = load ptr, ptr %5, align 8
  %10 = getelementptr inbounds %struct.Mpm_Par_t_, ptr %9, i32 0, i32 4
  %11 = load i32, ptr %10, align 8
  %12 = icmp ne i32 %11, 0
  br i1 %12, label %13, label %19

13:                                               ; preds = %3
  %14 = load ptr, ptr %4, align 8
  %15 = call ptr @Gia_ManDupMuxes(ptr noundef %14, i32 noundef 2)
  store ptr %15, ptr %4, align 8
  %16 = load ptr, ptr %4, align 8
  %17 = call ptr @Mig_ManCreate(ptr noundef %16)
  store ptr %17, ptr %7, align 8
  %18 = load ptr, ptr %4, align 8
  call void @Gia_ManStop(ptr noundef %18)
  br label %22

19:                                               ; preds = %3
  %20 = load ptr, ptr %4, align 8
  %21 = call ptr @Mig_ManCreate(ptr noundef %20)
  store ptr %21, ptr %7, align 8
  br label %22

22:                                               ; preds = %19, %13
  %23 = load ptr, ptr %7, align 8
  %24 = load ptr, ptr %5, align 8
  %25 = load ptr, ptr %6, align 8
  %26 = call ptr @Mpm_ManPerformCellMapping(ptr noundef %23, ptr noundef %24, ptr noundef %25)
  store ptr %26, ptr %8, align 8
  %27 = load ptr, ptr %7, align 8
  call void @Mig_ManStop(ptr noundef %27)
  %28 = load ptr, ptr %8, align 8
  ret ptr %28
}