; Function Attrs: nounwind uwtable
define ptr @Mpm_ManCellMapping(ptr noundef %0, ptr noundef %1, ptr noundef %2) local_unnamed_addr #0 {
  %4 = getelementptr inbounds nuw i8, ptr %1, i64 24
  %5 = load i32, ptr %4, align 8
  %.not = icmp eq i32 %5, 0
  br i1 %.not, label %9, label %6

6:                                                ; preds = %3
  %7 = tail call ptr @Gia_ManDupMuxes(ptr noundef %0, i32 noundef 2) #11
  %8 = tail call ptr @Mig_ManCreate(ptr noundef %7) #11
  tail call void @Gia_ManStop(ptr noundef %7) #11
  br label %11

9:                                                ; preds = %3
  %10 = tail call ptr @Mig_ManCreate(ptr noundef %0) #11
  br label %11

11:                                               ; preds = %9, %6
  %.0 = phi ptr [ %8, %6 ], [ %10, %9 ]
  %12 = tail call ptr @Mpm_ManPerformCellMapping(ptr noundef %.0, ptr noundef nonnull %1, ptr noundef %2)
  tail call void @Mig_ManStop(ptr noundef %.0) #11
  ret ptr %12
}